; Function Attrs: null_pointer_is_valid sspstrong uwtable
define hidden i32 @samr_dissect_struct_DispEntryFullGroup(ptr noundef %0, i32 noundef %1, ptr noundef %2, ptr noundef %3, ptr noundef %4, ptr noundef %5, i32 noundef %6, i32 %7) local_unnamed_addr #0 {
  %9 = getelementptr inbounds nuw i8, ptr %4, i64 64
  %10 = load ptr, ptr %9, align 8
  %11 = getelementptr inbounds nuw i8, ptr %10, i64 96
  %12 = load i32, ptr %11, align 8
  %13 = and i32 %12, 1
  %.not = icmp eq i32 %13, 0
  %14 = getelementptr inbounds nuw i8, ptr %4, i64 25
  %15 = load i8, ptr %14, align 1, !range !6, !noundef !7
  %16 = trunc nuw i8 %15 to i1
  br i1 %.not, label %22, label %17

17:                                               ; preds = %8
  %18 = and i32 %1, 7
  %.not59 = icmp eq i32 %18, 0
  %or.cond = or i1 %.not59, %16
  br i1 %or.cond, label %27, label %19

19:                                               ; preds = %17
  %20 = and i32 %1, -8
  %21 = add i32 %20, 8
  br label %27

22:                                               ; preds = %8
  %23 = and i32 %1, 3
  %.not58 = icmp eq i32 %23, 0
  %or.cond63 = or i1 %.not58, %16
  br i1 %or.cond63, label %27, label %24

24:                                               ; preds = %22
  %25 = and i32 %1, -4
  %26 = add i32 %25, 4
  br label %27

27:                                               ; preds = %22, %24, %17, %19
  %.0 = phi i32 [ %1, %17 ], [ %21, %19 ], [ %1, %22 ], [ %26, %24 ]
  %.not60 = icmp eq ptr %3, null
  br i1 %.not60, label %32, label %28

28:                                               ; preds = %27
  %29 = tail call ptr @proto_tree_add_item(ptr noundef nonnull %3, i32 noundef %6, ptr noundef %0, i32 noundef %.0, i32 noundef -1, i32 noundef 0)
  %30 = load i32, ptr @ett_samr_samr_DispEntryFullGroup, align 4
  %31 = tail call ptr @proto_item_add_subtree(ptr noundef %29, i32 noundef %30)
  br label %32

32:                                               ; preds = %28, %27
  %.056 = phi ptr [ %29, %28 ], [ null, %27 ]
  %.055 = phi ptr [ %31, %28 ], [ null, %27 ]
  %33 = load i32, ptr @hf_samr_samr_DispEntryFullGroup_idx, align 4
  %34 = tail call i32 @PIDL_dissect_uint32(ptr noundef %0, i32 noundef %.0, ptr noundef %2, ptr noundef %.055, ptr noundef %4, ptr noundef %5, i32 noundef %33, i32 noundef 0)
  %35 = load i32, ptr @hf_samr_rid, align 4
  %36 = tail call i32 @PIDL_dissect_uint32(ptr noundef %0, i32 noundef %34, ptr noundef %2, ptr noundef %.055, ptr noundef %4, ptr noundef %5, i32 noundef %35, i32 noundef 0)
  %37 = load i32, ptr @hf_samr_samr_DispEntryFullGroup_acct_flags, align 4
  %38 = tail call i32 @samr_dissect_bitmap_GroupAttrs(ptr noundef %0, i32 noundef %36, ptr noundef %2, ptr noundef %.055, ptr noundef %4, ptr noundef %5, i32 noundef %37, i32 poison)
  %39 = load i32, ptr @hf_samr_samr_DispEntryFullGroup_account_name, align 4
  %40 = tail call i32 @dissect_ndr_lsa_String(ptr noundef %0, i32 noundef %38, ptr noundef %2, ptr noundef %.055, ptr noundef %4, ptr noundef %5, i32 noundef 0, i32 noundef %39)
  %41 = load i32, ptr @hf_samr_samr_DispEntryFullGroup_description, align 4
  %42 = tail call i32 @dissect_ndr_lsa_String(ptr noundef %0, i32 noundef %40, ptr noundef %2, ptr noundef %.055, ptr noundef %4, ptr noundef %5, i32 noundef 0, i32 noundef %41)
  %43 = sub i32 %42, %.0
  tail call void @proto_item_set_len(ptr noundef %.056, i32 noundef %43)
  %44 = load ptr, ptr %9, align 8
  %45 = getelementptr inbounds nuw i8, ptr %44, i64 96
  %46 = load i32, ptr %45, align 8
  %47 = and i32 %46, 1
  %.not61 = icmp eq i32 %47, 0
  br i1 %.not61, label %56, label %48

48:                                               ; preds = %32
  %49 = getelementptr inbounds nuw i8, ptr %4, i64 25
  %50 = load i8, ptr %49, align 1, !range !6, !noundef !7
  %51 = trunc nuw i8 %50 to i1
  %52 = and i32 %42, 7
  %.not62 = icmp eq i32 %52, 0
  %or.cond64 = or i1 %.not62, %51
  br i1 %or.cond64, label %56, label %53

53:                                               ; preds = %48
  %54 = and i32 %42, -8
  %55 = add i32 %54, 8
  br label %56

56:                                               ; preds = %53, %48, %32
  %.1 = phi i32 [ %42, %48 ], [ %55, %53 ], [ %42, %32 ]
  ret i32 %.1
}